target datalayout = "e-m:e-p270:32:32-p271:32:32-p272:64:64-i64:64-i128:128-f80:128-n8:16:32:64-S128"
target triple = "x86_64-pc-linux-gnu"

%struct.AVFilterContext = type { ptr, ptr, ptr, ptr, ptr, i32, ptr, ptr, i32, ptr, ptr, i32, i32, ptr, ptr, ptr, ptr, i32, ptr, i32, i32 }
%struct.TiltandshiftContext = type { ptr, i32, i32, i32, i32, i32, i32, [4 x ptr], [4 x i32], i64, ptr, ptr, ptr }
%struct.AVFilterLink = type { ptr, ptr, ptr, ptr, i32, i32, i32, i32, %struct.AVRational, i32, i32, i32, %struct.AVChannelLayout, %struct.AVRational, ptr, i32, %struct.AVFilterFormatsConfig, %struct.AVFilterFormatsConfig }
%struct.AVChannelLayout = type { i32, i32, %union.anon.1, ptr }
%union.anon.1 = type { i64 }
%struct.AVRational = type { i32, i32 }
%struct.AVFilterFormatsConfig = type { ptr, ptr, ptr, ptr, ptr }
%struct.AVFrame = type { [8 x ptr], [8 x i32], ptr, i32, i32, i32, i32, i32, %struct.AVRational, i64, i64, %struct.AVRational, i32, ptr, i32, i32, [8 x ptr], ptr, i32, ptr, i32, i32, i32, i32, i32, i32, i32, i64, ptr, i32, ptr, ptr, i64, i64, i64, i64, ptr, %struct.AVChannelLayout, i64 }

@.str.3 = private unnamed_addr constant [59 x i8] c"Not enough frames in the list (%zu/%d), waiting for more.\0A\00", align 1

; Function Attrs: nounwind uwtable
define internal i32 @list_add_frame(ptr noundef %0, ptr noundef %1) #1 {
  %3 = alloca ptr, align 8
  %4 = alloca ptr, align 8
  %5 = alloca ptr, align 8
  store ptr %0, ptr %3, align 8, !tbaa !22
  store ptr %1, ptr %4, align 8, !tbaa !33
  %6 = load ptr, ptr %3, align 8, !tbaa !22
  %7 = getelementptr inbounds nuw %struct.TiltandshiftContext, ptr %6, i32 0, i32 10
  %8 = load ptr, ptr %7, align 8, !tbaa !24
  %9 = icmp eq ptr %8, null
  br i1 %9, label %10, label %14

10:                                               ; preds = %2
  %11 = load ptr, ptr %4, align 8, !tbaa !33
  %12 = load ptr, ptr %3, align 8, !tbaa !22
  %13 = getelementptr inbounds nuw %struct.TiltandshiftContext, ptr %12, i32 0, i32 10
  store ptr %11, ptr %13, align 8, !tbaa !24
  br label %31

14:                                               ; preds = %2
  call void @llvm.lifetime.start.p0(i64 8, ptr %5) #6
  %15 = load ptr, ptr %3, align 8, !tbaa !22
  %16 = getelementptr inbounds nuw %struct.TiltandshiftContext, ptr %15, i32 0, i32 10
  %17 = load ptr, ptr %16, align 8, !tbaa !24
  store ptr %17, ptr %5, align 8, !tbaa !33
  br label %18

18:                                               ; preds = %23, %14
  %19 = load ptr, ptr %5, align 8, !tbaa !33
  %20 = getelementptr inbounds nuw %struct.AVFrame, ptr %19, i32 0, i32 13
  %21 = load ptr, ptr %20, align 8, !tbaa !49
  %22 = icmp ne ptr %21, null
  br i1 %22, label %23, label %27

23:                                               ; preds = %18
  %24 = load ptr, ptr %5, align 8, !tbaa !33
  %25 = getelementptr inbounds nuw %struct.AVFrame, ptr %24, i32 0, i32 13
  %26 = load ptr, ptr %25, align 8, !tbaa !49
  store ptr %26, ptr %5, align 8, !tbaa !33
  br label %18, !llvm.loop !54

27:                                               ; preds = %18
  %28 = load ptr, ptr %4, align 8, !tbaa !33
  %29 = load ptr, ptr %5, align 8, !tbaa !33
  %30 = getelementptr inbounds nuw %struct.AVFrame, ptr %29, i32 0, i32 13
  store ptr %28, ptr %30, align 8, !tbaa !49
  call void @llvm.lifetime.end.p0(i64 8, ptr %5) #6
  br label %31

31:                                               ; preds = %27, %10
  %32 = load ptr, ptr %3, align 8, !tbaa !22
  %33 = getelementptr inbounds nuw %struct.TiltandshiftContext, ptr %32, i32 0, i32 9
  %34 = load i64, ptr %33, align 8, !tbaa !46
  %35 = add i64 %34, 1
  store i64 %35, ptr %33, align 8, !tbaa !46
  ret i32 0
}

; Function Attrs: nounwind uwtable
define internal i32 @filter_frame(ptr noundef %0, ptr noundef %1) #1 {
  %3 = alloca i32, align 4
  %4 = alloca ptr, align 8
  %5 = alloca ptr, align 8
  %6 = alloca ptr, align 8
  %7 = alloca ptr, align 8
  %8 = alloca ptr, align 8
  %9 = alloca i32, align 4
  %10 = alloca i32, align 4
  store ptr %0, ptr %4, align 8, !tbaa !31
  store ptr %1, ptr %5, align 8, !tbaa !33
  call void @llvm.lifetime.start.p0(i64 8, ptr %6) #6
  %11 = load ptr, ptr %4, align 8, !tbaa !31
  %12 = getelementptr inbounds nuw %struct.AVFilterLink, ptr %11, i32 0, i32 2
  %13 = load ptr, ptr %12, align 8, !tbaa !34
  %14 = getelementptr inbounds nuw %struct.AVFilterContext, ptr %13, i32 0, i32 7
  %15 = load ptr, ptr %14, align 8, !tbaa !42
  %16 = getelementptr inbounds ptr, ptr %15, i64 0
  %17 = load ptr, ptr %16, align 8, !tbaa !31
  store ptr %17, ptr %6, align 8, !tbaa !31
  call void @llvm.lifetime.start.p0(i64 8, ptr %7) #6
  %18 = load ptr, ptr %6, align 8, !tbaa !31
  %19 = getelementptr inbounds nuw %struct.AVFilterLink, ptr %18, i32 0, i32 0
  %20 = load ptr, ptr %19, align 8, !tbaa !43
  store ptr %20, ptr %7, align 8, !tbaa !4
  call void @llvm.lifetime.start.p0(i64 8, ptr %8) #6
  %21 = load ptr, ptr %4, align 8, !tbaa !31
  %22 = getelementptr inbounds nuw %struct.AVFilterLink, ptr %21, i32 0, i32 2
  %23 = load ptr, ptr %22, align 8, !tbaa !34
  %24 = getelementptr inbounds nuw %struct.AVFilterContext, ptr %23, i32 0, i32 9
  %25 = load ptr, ptr %24, align 8, !tbaa !9
  store ptr %25, ptr %8, align 8, !tbaa !22
  call void @llvm.lifetime.start.p0(i64 4, ptr %9) #6
  %26 = load ptr, ptr %8, align 8, !tbaa !22
  %27 = load ptr, ptr %5, align 8, !tbaa !33
  %28 = call i32 @list_add_frame(ptr noundef %26, ptr noundef %27)
  store i32 %28, ptr %9, align 4, !tbaa !44
  %29 = load i32, ptr %9, align 4, !tbaa !44
  %30 = icmp slt i32 %29, 0
  br i1 %30, label %31, label %33

31:                                               ; preds = %2
  %32 = load i32, ptr %9, align 4, !tbaa !44
  store i32 %32, ptr %3, align 4
  store i32 1, ptr %10, align 4
  br label %66

33:                                               ; preds = %2
  %34 = load ptr, ptr %8, align 8, !tbaa !22
  %35 = getelementptr inbounds nuw %struct.TiltandshiftContext, ptr %34, i32 0, i32 1
  %36 = load i32, ptr %35, align 8, !tbaa !45
  %37 = icmp ne i32 %36, 0
  br i1 %37, label %63, label %38

38:                                               ; preds = %33
  %39 = load ptr, ptr %8, align 8, !tbaa !22
  %40 = getelementptr inbounds nuw %struct.TiltandshiftContext, ptr %39, i32 0, i32 9
  %41 = load i64, ptr %40, align 8, !tbaa !46
  %42 = load ptr, ptr %6, align 8, !tbaa !31
  %43 = getelementptr inbounds nuw %struct.AVFilterLink, ptr %42, i32 0, i32 6
  %44 = load i32, ptr %43, align 8, !tbaa !47
  %45 = load ptr, ptr %8, align 8, !tbaa !22
  %46 = getelementptr inbounds nuw %struct.TiltandshiftContext, ptr %45, i32 0, i32 6
  %47 = load i32, ptr %46, align 4, !tbaa !48
  %48 = sub nsw i32 %44, %47
  %49 = sext i32 %48 to i64
  %50 = icmp ult i64 %41, %49
  br i1 %50, label %51, label %63

51:                                               ; preds = %38
  %52 = load ptr, ptr %7, align 8, !tbaa !4
  %53 = load ptr, ptr %8, align 8, !tbaa !22
  %54 = getelementptr inbounds nuw %struct.TiltandshiftContext, ptr %53, i32 0, i32 9
  %55 = load i64, ptr %54, align 8, !tbaa !46
  %56 = load ptr, ptr %6, align 8, !tbaa !31
  %57 = getelementptr inbounds nuw %struct.AVFilterLink, ptr %56, i32 0, i32 6
  %58 = load i32, ptr %57, align 8, !tbaa !47
  %59 = load ptr, ptr %8, align 8, !tbaa !22
  %60 = getelementptr inbounds nuw %struct.TiltandshiftContext, ptr %59, i32 0, i32 6
  %61 = load i32, ptr %60, align 4, !tbaa !48
  %62 = sub nsw i32 %58, %61
  call void (ptr, i32, ptr, ...) @av_log(ptr noundef %52, i32 noundef 48, ptr noundef @.str.3, i64 noundef %55, i32 noundef %62)
  store i32 0, ptr %3, align 4
  store i32 1, ptr %10, align 4
  br label %66

63:                                               ; preds = %38, %33
  %64 = load ptr, ptr %6, align 8, !tbaa !31
  %65 = call i32 @output_frame(ptr noundef %64)
  store i32 %65, ptr %3, align 4
  store i32 1, ptr %10, align 4
  br label %66

66:                                               ; preds = %63, %51, %31
  call void @llvm.lifetime.end.p0(i64 4, ptr %9) #6
  call void @llvm.lifetime.end.p0(i64 8, ptr %8) #6
  call void @llvm.lifetime.end.p0(i64 8, ptr %7) #6
  call void @llvm.lifetime.end.p0(i64 8, ptr %6) #6
  %67 = load i32, ptr %3, align 4
  ret i32 %67
}