; Function Attrs: nounwind uwtable
define internal i32 @filter_frame(ptr noundef readonly captures(none) %0, ptr noundef %1) #1 {
  %3 = getelementptr inbounds nuw i8, ptr %0, i64 16
  %4 = load ptr, ptr %3, align 8, !tbaa !27
  %5 = getelementptr inbounds nuw i8, ptr %4, i64 56
  %6 = load ptr, ptr %5, align 8, !tbaa !36
  %7 = load ptr, ptr %6, align 8, !tbaa !37
  %8 = load ptr, ptr %7, align 8, !tbaa !39
  %9 = getelementptr inbounds nuw i8, ptr %4, i64 72
  %10 = load ptr, ptr %9, align 8, !tbaa !4
  %11 = getelementptr inbounds nuw i8, ptr %10, i64 88
  %12 = load ptr, ptr %11, align 8, !tbaa !20
  %13 = icmp eq ptr %12, null
  br i1 %13, label %14, label %.preheader.i

14:                                               ; preds = %2
  store ptr %1, ptr %11, align 8, !tbaa !20
  br label %list_add_frame.exit

.preheader.i:                                     ; preds = %2, %.preheader.i
  %.0.i = phi ptr [ %16, %.preheader.i ], [ %12, %2 ]
  %15 = getelementptr inbounds nuw i8, ptr %.0.i, i64 168
  %16 = load ptr, ptr %15, align 8, !tbaa !40
  %.not.i = icmp eq ptr %16, null
  br i1 %.not.i, label %17, label %.preheader.i, !llvm.loop !45

17:                                               ; preds = %.preheader.i
  %18 = getelementptr inbounds nuw i8, ptr %.0.i, i64 168
  store ptr %1, ptr %18, align 8, !tbaa !40
  br label %list_add_frame.exit

list_add_frame.exit:                              ; preds = %14, %17
  %19 = getelementptr inbounds nuw i8, ptr %10, i64 80
  %20 = load i64, ptr %19, align 8, !tbaa !46
  %21 = add i64 %20, 1
  store i64 %21, ptr %19, align 8, !tbaa !46
  %22 = getelementptr inbounds nuw i8, ptr %10, i64 8
  %23 = load i32, ptr %22, align 8, !tbaa !47
  %.not = icmp eq i32 %23, 0
  br i1 %.not, label %24, label %33

24:                                               ; preds = %list_add_frame.exit
  %25 = getelementptr inbounds nuw i8, ptr %7, i64 40
  %26 = load i32, ptr %25, align 8, !tbaa !48
  %27 = getelementptr inbounds nuw i8, ptr %10, i64 28
  %28 = load i32, ptr %27, align 4, !tbaa !49
  %29 = sub nsw i32 %26, %28
  %30 = sext i32 %29 to i64
  %31 = icmp ult i64 %21, %30
  br i1 %31, label %32, label %33

32:                                               ; preds = %24
  tail call void (ptr, i32, ptr, ...) @av_log(ptr noundef %8, i32 noundef 48, ptr noundef nonnull @.str.3, i64 noundef %21, i32 noundef %29) #6
  br label %35

33:                                               ; preds = %24, %list_add_frame.exit
  %34 = tail call fastcc i32 @output_frame(ptr noundef nonnull %7)
  br label %35

35:                                               ; preds = %33, %32
  %.0 = phi i32 [ %34, %33 ], [ 0, %32 ]
  ret i32 %.0
}